target datalayout = "e-m:e-p270:32:32-p271:32:32-p272:64:64-i64:64-i128:128-f80:128-n8:16:32:64-S128"
target triple = "x86_64-pc-linux-gnu"

%struct.envelope = type { i32, ptr, ptr, ptr, ptr, i64, ptr, i32, %struct.tMPI_Atomic, i32, ptr, ptr, i32, ptr, ptr, ptr, ptr }
%struct.tMPI_Atomic = type { i32, [60 x i8] }
%struct.recv_envelope_list = type { ptr, %struct.envelope }

; Function Attrs: mustprogress nounwind uwtable
define noundef i32 @_Z23tMPI_Recv_env_list_initP18recv_envelope_list(ptr noundef %0) #3 {
  %2 = alloca ptr, align 8
  store ptr %0, ptr %2, align 8, !tbaa !38
  %3 = load ptr, ptr %2, align 8, !tbaa !38
  %4 = getelementptr inbounds nuw %struct.recv_envelope_list, ptr %3, i32 0, i32 1
  %5 = load ptr, ptr %2, align 8, !tbaa !38
  %6 = getelementptr inbounds nuw %struct.recv_envelope_list, ptr %5, i32 0, i32 0
  store ptr %4, ptr %6, align 8, !tbaa !39
  %7 = load ptr, ptr %2, align 8, !tbaa !38
  %8 = getelementptr inbounds nuw %struct.recv_envelope_list, ptr %7, i32 0, i32 0
  %9 = load ptr, ptr %8, align 8, !tbaa !39
  %10 = load ptr, ptr %2, align 8, !tbaa !38
  %11 = getelementptr inbounds nuw %struct.recv_envelope_list, ptr %10, i32 0, i32 0
  %12 = load ptr, ptr %11, align 8, !tbaa !39
  %13 = getelementptr inbounds nuw %struct.envelope, ptr %12, i32 0, i32 10
  store ptr %9, ptr %13, align 8, !tbaa !32
  %14 = load ptr, ptr %2, align 8, !tbaa !38
  %15 = getelementptr inbounds nuw %struct.recv_envelope_list, ptr %14, i32 0, i32 0
  %16 = load ptr, ptr %15, align 8, !tbaa !39
  %17 = load ptr, ptr %2, align 8, !tbaa !38
  %18 = getelementptr inbounds nuw %struct.recv_envelope_list, ptr %17, i32 0, i32 0
  %19 = load ptr, ptr %18, align 8, !tbaa !39
  %20 = getelementptr inbounds nuw %struct.envelope, ptr %19, i32 0, i32 11
  store ptr %16, ptr %20, align 8, !tbaa !14
  ret i32 0
}