; Function Attrs: mustprogress nofree norecurse nosync nounwind willreturn memory(argmem: write) uwtable
define noundef i32 @_Z23tMPI_Recv_env_list_initP18recv_envelope_list(ptr noundef %0) local_unnamed_addr #4 {
  %2 = getelementptr inbounds nuw i8, ptr %0, i64 8
  store ptr %2, ptr %0, align 8, !tbaa !34
  %3 = getelementptr inbounds nuw i8, ptr %0, i64 136
  store ptr %2, ptr %3, align 8, !tbaa !26
  %4 = getelementptr inbounds nuw i8, ptr %0, i64 144
  store ptr %2, ptr %4, align 8, !tbaa !10
  ret i32 0
}